target datalayout = "e-m:e-p270:32:32-p271:32:32-p272:64:64-i64:64-i128:128-f80:128-n8:16:32:64-S128"
target triple = "x86_64-pc-linux-gnu"

%struct.zlentry = type { i32, i32, i32, i32, i32, i8, ptr }

; Function Attrs: nounwind uwtable
define dso_local i32 @ziplistValidateIntegrity(ptr noundef %0, i64 noundef %1, i32 noundef %2, ptr noundef %3, ptr noundef %4) #0 {
  %6 = alloca i32, align 4
  %7 = alloca ptr, align 8
  %8 = alloca i64, align 8
  %9 = alloca i32, align 4
  %10 = alloca ptr, align 8
  %11 = alloca ptr, align 8
  %12 = alloca i64, align 8
  %13 = alloca i32, align 4
  %14 = alloca i32, align 4
  %15 = alloca i32, align 4
  %16 = alloca ptr, align 8
  %17 = alloca ptr, align 8
  %18 = alloca i64, align 8
  %19 = alloca %struct.zlentry, align 8
  store ptr %0, ptr %7, align 8, !tbaa !5
  store i64 %1, ptr %8, align 8, !tbaa !10
  store i32 %2, ptr %9, align 4, !tbaa !12
  store ptr %3, ptr %10, align 8, !tbaa !47
  store ptr %4, ptr %11, align 8, !tbaa !47
  %20 = load i64, ptr %8, align 8, !tbaa !10
  %21 = icmp ult i64 %20, 11
  br i1 %21, label %22, label %23

22:                                               ; preds = %5
  store i32 0, ptr %6, align 4
  br label %143

23:                                               ; preds = %5
  call void @llvm.lifetime.start.p0(i64 8, ptr %12) #11
  %24 = load ptr, ptr %7, align 8, !tbaa !5
  %25 = load i32, ptr %24, align 4, !tbaa !12
  %26 = zext i32 %25 to i64
  store i64 %26, ptr %12, align 8, !tbaa !10
  %27 = load i64, ptr %12, align 8, !tbaa !10
  %28 = load i64, ptr %8, align 8, !tbaa !10
  %29 = icmp ne i64 %27, %28
  br i1 %29, label %30, label %31

30:                                               ; preds = %23
  store i32 0, ptr %6, align 4
  store i32 1, ptr %13, align 4
  br label %142

31:                                               ; preds = %23
  %32 = load ptr, ptr %7, align 8, !tbaa !5
  %33 = load i64, ptr %8, align 8, !tbaa !10
  %34 = sub i64 %33, 1
  %35 = getelementptr inbounds nuw i8, ptr %32, i64 %34
  %36 = load i8, ptr %35, align 1, !tbaa !14
  %37 = zext i8 %36 to i32
  %38 = icmp ne i32 %37, 255
  br i1 %38, label %39, label %40

39:                                               ; preds = %31
  store i32 0, ptr %6, align 4
  store i32 1, ptr %13, align 4
  br label %142

40:                                               ; preds = %31
  %41 = load ptr, ptr %7, align 8, !tbaa !5
  %42 = getelementptr inbounds nuw i8, ptr %41, i64 4
  %43 = load i32, ptr %42, align 4, !tbaa !12
  %44 = zext i32 %43 to i64
  %45 = load i64, ptr %8, align 8, !tbaa !10
  %46 = sub i64 %45, 1
  %47 = icmp ugt i64 %44, %46
  br i1 %47, label %48, label %49

48:                                               ; preds = %40
  store i32 0, ptr %6, align 4
  store i32 1, ptr %13, align 4
  br label %142

49:                                               ; preds = %40
  %50 = load i32, ptr %9, align 4, !tbaa !12
  %51 = icmp ne i32 %50, 0
  br i1 %51, label %53, label %52

52:                                               ; preds = %49
  store i32 1, ptr %6, align 4
  store i32 1, ptr %13, align 4
  br label %142

53:                                               ; preds = %49
  call void @llvm.lifetime.start.p0(i64 4, ptr %14) #11
  store i32 0, ptr %14, align 4, !tbaa !12
  call void @llvm.lifetime.start.p0(i64 4, ptr %15) #11
  %54 = load ptr, ptr %7, align 8, !tbaa !5
  %55 = getelementptr inbounds nuw i8, ptr %54, i64 8
  %56 = load i16, ptr %55, align 2, !tbaa !19
  %57 = zext i16 %56 to i32
  store i32 %57, ptr %15, align 4, !tbaa !12
  call void @llvm.lifetime.start.p0(i64 8, ptr %16) #11
  %58 = load ptr, ptr %7, align 8, !tbaa !5
  %59 = getelementptr inbounds nuw i8, ptr %58, i64 10
  store ptr %59, ptr %16, align 8, !tbaa !5
  call void @llvm.lifetime.start.p0(i64 8, ptr %17) #11
  store ptr null, ptr %17, align 8, !tbaa !5
  call void @llvm.lifetime.start.p0(i64 8, ptr %18) #11
  store i64 0, ptr %18, align 8, !tbaa !10
  br label %60

60:                                               ; preds = %110, %53
  %61 = load ptr, ptr %16, align 8, !tbaa !5
  %62 = load i8, ptr %61, align 1, !tbaa !14
  %63 = zext i8 %62 to i32
  %64 = icmp ne i32 %63, 255
  br i1 %64, label %65, label %111

65:                                               ; preds = %60
  call void @llvm.lifetime.start.p0(i64 32, ptr %19) #11
  %66 = load ptr, ptr %7, align 8, !tbaa !5
  %67 = load i64, ptr %8, align 8, !tbaa !10
  %68 = load ptr, ptr %16, align 8, !tbaa !5
  %69 = call i32 @zipEntrySafe(ptr noundef %66, i64 noundef %67, ptr noundef %68, ptr noundef %19, i32 noundef 1)
  %70 = icmp ne i32 %69, 0
  br i1 %70, label %72, label %71

71:                                               ; preds = %65
  store i32 0, ptr %6, align 4
  store i32 1, ptr %13, align 4
  br label %108

72:                                               ; preds = %65
  %73 = getelementptr inbounds nuw %struct.zlentry, ptr %19, i32 0, i32 1
  %74 = load i32, ptr %73, align 4, !tbaa !24
  %75 = zext i32 %74 to i64
  %76 = load i64, ptr %18, align 8, !tbaa !10
  %77 = icmp ne i64 %75, %76
  br i1 %77, label %78, label %79

78:                                               ; preds = %72
  store i32 0, ptr %6, align 4
  store i32 1, ptr %13, align 4
  br label %108

79:                                               ; preds = %72
  %80 = load ptr, ptr %10, align 8, !tbaa !47
  %81 = icmp ne ptr %80, null
  br i1 %81, label %82, label %90

82:                                               ; preds = %79
  %83 = load ptr, ptr %10, align 8, !tbaa !47
  %84 = load ptr, ptr %16, align 8, !tbaa !5
  %85 = load i32, ptr %15, align 4, !tbaa !12
  %86 = load ptr, ptr %11, align 8, !tbaa !47
  %87 = call i32 %83(ptr noundef %84, i32 noundef %85, ptr noundef %86)
  %88 = icmp ne i32 %87, 0
  br i1 %88, label %90, label %89

89:                                               ; preds = %82
  store i32 0, ptr %6, align 4
  store i32 1, ptr %13, align 4
  br label %108

90:                                               ; preds = %82, %79
  %91 = getelementptr inbounds nuw %struct.zlentry, ptr %19, i32 0, i32 4
  %92 = load i32, ptr %91, align 8, !tbaa !21
  %93 = getelementptr inbounds nuw %struct.zlentry, ptr %19, i32 0, i32 3
  %94 = load i32, ptr %93, align 4, !tbaa !23
  %95 = add i32 %92, %94
  %96 = zext i32 %95 to i64
  store i64 %96, ptr %18, align 8, !tbaa !10
  %97 = load ptr, ptr %16, align 8, !tbaa !5
  store ptr %97, ptr %17, align 8, !tbaa !5
  %98 = getelementptr inbounds nuw %struct.zlentry, ptr %19, i32 0, i32 4
  %99 = load i32, ptr %98, align 8, !tbaa !21
  %100 = getelementptr inbounds nuw %struct.zlentry, ptr %19, i32 0, i32 3
  %101 = load i32, ptr %100, align 4, !tbaa !23
  %102 = add i32 %99, %101
  %103 = load ptr, ptr %16, align 8, !tbaa !5
  %104 = zext i32 %102 to i64
  %105 = getelementptr inbounds nuw i8, ptr %103, i64 %104
  store ptr %105, ptr %16, align 8, !tbaa !5
  %106 = load i32, ptr %14, align 4, !tbaa !12
  %107 = add i32 %106, 1
  store i32 %107, ptr %14, align 4, !tbaa !12
  store i32 0, ptr %13, align 4
  br label %108

108:                                              ; preds = %90, %89, %78, %71
  call void @llvm.lifetime.end.p0(i64 32, ptr %19) #11
  %109 = load i32, ptr %13, align 4
  switch i32 %109, label %141 [
    i32 0, label %110
  ]

110:                                              ; preds = %108
  br label %60, !llvm.loop !48

111:                                              ; preds = %60
  %112 = load ptr, ptr %16, align 8, !tbaa !5
  %113 = load ptr, ptr %7, align 8, !tbaa !5
  %114 = load i64, ptr %12, align 8, !tbaa !10
  %115 = getelementptr inbounds nuw i8, ptr %113, i64 %114
  %116 = getelementptr inbounds i8, ptr %115, i64 -1
  %117 = icmp ne ptr %112, %116
  br i1 %117, label %118, label %119

118:                                              ; preds = %111
  store i32 0, ptr %6, align 4
  store i32 1, ptr %13, align 4
  br label %141

119:                                              ; preds = %111
  %120 = load ptr, ptr %17, align 8, !tbaa !5
  %121 = icmp ne ptr %120, null
  br i1 %121, label %122, label %132

122:                                              ; preds = %119
  %123 = load ptr, ptr %17, align 8, !tbaa !5
  %124 = load ptr, ptr %7, align 8, !tbaa !5
  %125 = load ptr, ptr %7, align 8, !tbaa !5
  %126 = getelementptr inbounds nuw i8, ptr %125, i64 4
  %127 = load i32, ptr %126, align 4, !tbaa !12
  %128 = zext i32 %127 to i64
  %129 = getelementptr inbounds nuw i8, ptr %124, i64 %128
  %130 = icmp ne ptr %123, %129
  br i1 %130, label %131, label %132

131:                                              ; preds = %122
  store i32 0, ptr %6, align 4
  store i32 1, ptr %13, align 4
  br label %141

132:                                              ; preds = %122, %119
  %133 = load i32, ptr %15, align 4, !tbaa !12
  %134 = icmp ne i32 %133, 65535
  br i1 %134, label %135, label %140

135:                                              ; preds = %132
  %136 = load i32, ptr %14, align 4, !tbaa !12
  %137 = load i32, ptr %15, align 4, !tbaa !12
  %138 = icmp ne i32 %136, %137
  br i1 %138, label %139, label %140

139:                                              ; preds = %135
  store i32 0, ptr %6, align 4
  store i32 1, ptr %13, align 4
  br label %141

140:                                              ; preds = %135, %132
  store i32 1, ptr %6, align 4
  store i32 1, ptr %13, align 4
  br label %141

141:                                              ; preds = %140, %139, %131, %118, %108
  call void @llvm.lifetime.end.p0(i64 8, ptr %18) #11
  call void @llvm.lifetime.end.p0(i64 8, ptr %17) #11
  call void @llvm.lifetime.end.p0(i64 8, ptr %16) #11
  call void @llvm.lifetime.end.p0(i64 4, ptr %15) #11
  call void @llvm.lifetime.end.p0(i64 4, ptr %14) #11
  br label %142

142:                                              ; preds = %141, %52, %48, %39, %30
  call void @llvm.lifetime.end.p0(i64 8, ptr %12) #11
  br label %143

143:                                              ; preds = %142, %22
  %144 = load i32, ptr %6, align 4
  ret i32 %144
}